; Function Attrs: nofree norecurse nosync nounwind memory(read, argmem: readwrite, inaccessiblemem: none) uwtable
define void @SUNDlsMat_bandGBTRS(ptr noundef readonly captures(none) %0, i64 noundef %1, i64 noundef %2, i64 noundef %3, ptr noundef readonly captures(none) %4, ptr noundef captures(none) %5) local_unnamed_addr #1 {
  %7 = add i64 %1, -1
  %8 = icmp sgt i64 %1, 1
  br i1 %8, label %.lr.ph68, label %.preheader

.loopexit:                                        ; preds = %.lr.ph, %17
  %exitcond75.not = icmp eq i64 %22, %7
  br i1 %exitcond75.not, label %.preheader, label %.lr.ph68

.preheader:                                       ; preds = %.loopexit, %6
  %9 = icmp sgt i64 %1, 0
  br i1 %9, label %.lr.ph73, label %._crit_edge74

.lr.ph68:                                         ; preds = %6, %.loopexit
  %.067 = phi i64 [ %22, %.loopexit ], [ 0, %6 ]
  %10 = getelementptr inbounds nuw i64, ptr %4, i64 %.067
  %11 = load i64, ptr %10, align 8, !tbaa !19
  %12 = getelementptr inbounds double, ptr %5, i64 %11
  %13 = load double, ptr %12, align 8, !tbaa !17
  %.not = icmp eq i64 %11, %.067
  br i1 %.not, label %17, label %14

14:                                               ; preds = %.lr.ph68
  %15 = getelementptr inbounds nuw double, ptr %5, i64 %.067
  %16 = load double, ptr %15, align 8, !tbaa !17
  store double %16, ptr %12, align 8, !tbaa !17
  store double %13, ptr %15, align 8, !tbaa !17
  br label %17

17:                                               ; preds = %14, %.lr.ph68
  %18 = getelementptr inbounds nuw ptr, ptr %0, i64 %.067
  %19 = load ptr, ptr %18, align 8, !tbaa !16
  %20 = getelementptr inbounds double, ptr %19, i64 %2
  %21 = add nsw i64 %.067, %3
  %.not63 = icmp sgt i64 %1, %21
  %. = select i1 %.not63, i64 %21, i64 %7
  %22 = add nuw nsw i64 %.067, 1
  %.not6465.not = icmp slt i64 %.067, %.
  br i1 %.not6465.not, label %.lr.ph, label %.loopexit

.lr.ph:                                           ; preds = %17, %.lr.ph
  %.05966 = phi i64 [ %29, %.lr.ph ], [ %22, %17 ]
  %23 = sub nuw nsw i64 %.05966, %.067
  %24 = getelementptr inbounds double, ptr %20, i64 %23
  %25 = load double, ptr %24, align 8, !tbaa !17
  %26 = getelementptr inbounds nuw double, ptr %5, i64 %.05966
  %27 = load double, ptr %26, align 8, !tbaa !17
  %28 = tail call double @llvm.fmuladd.f64(double %13, double %25, double %27)
  store double %28, ptr %26, align 8, !tbaa !17
  %29 = add nuw i64 %.05966, 1
  %exitcond.not = icmp eq i64 %.05966, %.
  br i1 %exitcond.not, label %.loopexit, label %.lr.ph

.lr.ph73:                                         ; preds = %.preheader, %._crit_edge
  %.172 = phi i64 [ %47, %._crit_edge ], [ %7, %.preheader ]
  %30 = getelementptr inbounds nuw ptr, ptr %0, i64 %.172
  %31 = load ptr, ptr %30, align 8, !tbaa !16
  %32 = getelementptr inbounds double, ptr %31, i64 %2
  %33 = sub nsw i64 %.172, %2
  %34 = tail call i64 @llvm.smax.i64(i64 %33, i64 0)
  %35 = load double, ptr %32, align 8, !tbaa !17
  %36 = getelementptr inbounds nuw double, ptr %5, i64 %.172
  %37 = load double, ptr %36, align 8, !tbaa !17
  %38 = fdiv double %37, %35
  store double %38, ptr %36, align 8, !tbaa !17
  %39 = fneg double %38
  %.not.not69 = icmp samesign ult i64 %34, %.172
  br i1 %.not.not69, label %.lr.ph71, label %._crit_edge

.lr.ph71:                                         ; preds = %.lr.ph73, %.lr.ph71
  %.16070 = phi i64 [ %46, %.lr.ph71 ], [ %34, %.lr.ph73 ]
  %40 = sub nsw i64 %.16070, %.172
  %41 = getelementptr inbounds double, ptr %32, i64 %40
  %42 = load double, ptr %41, align 8, !tbaa !17
  %43 = getelementptr inbounds nuw double, ptr %5, i64 %.16070
  %44 = load double, ptr %43, align 8, !tbaa !17
  %45 = tail call double @llvm.fmuladd.f64(double %39, double %42, double %44)
  store double %45, ptr %43, align 8, !tbaa !17
  %46 = add nuw nsw i64 %.16070, 1
  %.not.not = icmp slt i64 %46, %.172
  br i1 %.not.not, label %.lr.ph71, label %._crit_edge

._crit_edge:                                      ; preds = %.lr.ph71, %.lr.ph73
  %47 = add nsw i64 %.172, -1
  %48 = icmp sgt i64 %.172, 0
  br i1 %48, label %.lr.ph73, label %._crit_edge74

._crit_edge74:                                    ; preds = %._crit_edge, %.preheader
  ret void
}